; Function Attrs: mustprogress nofree norecurse nosync nounwind willreturn memory(argmem: write) uwtable
define void @_ZN5Ipopt19DenseSymMatrixSpaceC2Ei(ptr noundef nonnull writeonly align 8 captures(none) dereferenceable(20) initializes((0, 20)) %0, i32 noundef %1) unnamed_addr #8 align 2 {
  %3 = getelementptr inbounds nuw i8, ptr %0, i64 8
  store i32 0, ptr %3, align 8, !tbaa !3
  %4 = getelementptr inbounds nuw i8, ptr %0, i64 12
  store i32 %1, ptr %4, align 4, !tbaa !34
  %5 = getelementptr inbounds nuw i8, ptr %0, i64 16
  store i32 %1, ptr %5, align 8, !tbaa !32
  store ptr getelementptr inbounds nuw inrange(-16, 32) (i8, ptr @_ZTVN5Ipopt19DenseSymMatrixSpaceE, i64 16), ptr %0, align 8, !tbaa !8
  ret void
}